target datalayout = "e-m:e-p270:32:32-p271:32:32-p272:64:64-i64:64-i128:128-f80:128-n8:16:32:64-S128"
target triple = "x86_64-pc-linux-gnu"

%"struct.duckdb_zstd::ldmParams_t" = type { i32, i32, i32, i32, i32, i32 }
%"struct.duckdb_zstd::ldmRollingHashState_t" = type { i64, i64 }
%"struct.duckdb_zstd::ldmEntry_t" = type { i32, i32 }
%"struct.duckdb_zstd::ldmState_t" = type { %"struct.duckdb_zstd::ZSTD_window_t", ptr, i32, ptr, [64 x i64], [64 x %"struct.duckdb_zstd::ldmMatchCandidate_t"] }
%"struct.duckdb_zstd::ZSTD_window_t" = type { ptr, ptr, ptr, i32, i32, i32 }
%"struct.duckdb_zstd::ldmMatchCandidate_t" = type { ptr, i32, i32, ptr }

; Function Attrs: mustprogress nounwind uwtable
define internal noundef ptr @_ZN11duckdb_zstdL18ZSTD_ldm_getBucketEPNS_10ldmState_tEmNS_11ldmParams_tE(ptr noundef %0, i64 noundef %1, ptr noundef byval(%"struct.duckdb_zstd::ldmParams_t") align 8 %2) #0 {
  %4 = alloca ptr, align 8
  %5 = alloca i64, align 8
  store ptr %0, ptr %4, align 8, !tbaa !3
  store i64 %1, ptr %5, align 8, !tbaa !18
  %6 = load ptr, ptr %4, align 8, !tbaa !3
  %7 = getelementptr inbounds nuw %"struct.duckdb_zstd::ldmState_t", ptr %6, i32 0, i32 1
  %8 = load ptr, ptr %7, align 8, !tbaa !52
  %9 = load i64, ptr %5, align 8, !tbaa !18
  %10 = getelementptr inbounds nuw %"struct.duckdb_zstd::ldmParams_t", ptr %2, i32 0, i32 2
  %11 = load i32, ptr %10, align 8, !tbaa !14
  %12 = zext i32 %11 to i64
  %13 = shl i64 %9, %12
  %14 = getelementptr inbounds nuw %"struct.duckdb_zstd::ldmEntry_t", ptr %8, i64 %13
  ret ptr %14
}

; Function Attrs: mustprogress uwtable
define internal void @_ZN11duckdb_zstdL20ZSTD_ldm_insertEntryEPNS_10ldmState_tEmNS_10ldmEntry_tENS_11ldmParams_tE(ptr noundef %0, i64 noundef %1, i64 %2, ptr noundef byval(%"struct.duckdb_zstd::ldmParams_t") align 8 %3) #1 {
  %5 = alloca %"struct.duckdb_zstd::ldmEntry_t", align 4
  %6 = alloca ptr, align 8
  %7 = alloca i64, align 8
  %8 = alloca ptr, align 8
  %9 = alloca i32, align 4
  %10 = alloca %"struct.duckdb_zstd::ldmParams_t", align 8
  store i64 %2, ptr %5, align 4
  store ptr %0, ptr %6, align 8, !tbaa !3
  store i64 %1, ptr %7, align 8, !tbaa !18
  call void @llvm.lifetime.start.p0(i64 8, ptr %8) #13
  %11 = load ptr, ptr %6, align 8, !tbaa !3
  %12 = getelementptr inbounds nuw %"struct.duckdb_zstd::ldmState_t", ptr %11, i32 0, i32 3
  %13 = load ptr, ptr %12, align 8, !tbaa !46
  %14 = load i64, ptr %7, align 8, !tbaa !18
  %15 = getelementptr inbounds nuw i8, ptr %13, i64 %14
  store ptr %15, ptr %8, align 8, !tbaa !21
  call void @llvm.lifetime.start.p0(i64 4, ptr %9) #13
  %16 = load ptr, ptr %8, align 8, !tbaa !21
  %17 = load i8, ptr %16, align 1, !tbaa !43
  %18 = zext i8 %17 to i32
  store i32 %18, ptr %9, align 4, !tbaa !23
  %19 = load ptr, ptr %6, align 8, !tbaa !3
  %20 = load i64, ptr %7, align 8, !tbaa !18
  call void @llvm.memcpy.p0.p0.i64(ptr align 4 %10, ptr align 8 %3, i64 24, i1 false), !tbaa.struct !33
  %21 = call noundef ptr @_ZN11duckdb_zstdL18ZSTD_ldm_getBucketEPNS_10ldmState_tEmNS_11ldmParams_tE(ptr noundef %19, i64 noundef %20, ptr noundef byval(%"struct.duckdb_zstd::ldmParams_t") align 8 %10)
  %22 = load i32, ptr %9, align 4, !tbaa !23
  %23 = zext i32 %22 to i64
  %24 = getelementptr inbounds nuw %"struct.duckdb_zstd::ldmEntry_t", ptr %21, i64 %23
  call void @llvm.memcpy.p0.p0.i64(ptr align 4 %24, ptr align 4 %5, i64 8, i1 false), !tbaa.struct !32
  %25 = load i32, ptr %9, align 4, !tbaa !23
  %26 = add i32 %25, 1
  %27 = getelementptr inbounds nuw %"struct.duckdb_zstd::ldmParams_t", ptr %3, i32 0, i32 2
  %28 = load i32, ptr %27, align 8, !tbaa !14
  %29 = shl i32 1, %28
  %30 = sub i32 %29, 1
  %31 = and i32 %26, %30
  %32 = trunc i32 %31 to i8
  %33 = load ptr, ptr %8, align 8, !tbaa !21
  store i8 %32, ptr %33, align 1, !tbaa !43
  call void @llvm.lifetime.end.p0(i64 4, ptr %9) #13
  call void @llvm.lifetime.end.p0(i64 8, ptr %8) #13
  ret void
}

; Function Attrs: mustprogress nounwind uwtable
define internal void @_ZN11duckdb_zstdL18ZSTD_ldm_gear_initEPNS_21ldmRollingHashState_tEPKNS_11ldmParams_tE(ptr noundef %0, ptr noundef %1) #0 {
  %3 = alloca ptr, align 8
  %4 = alloca ptr, align 8
  %5 = alloca i32, align 4
  %6 = alloca i32, align 4
  store ptr %0, ptr %3, align 8, !tbaa !3
  store ptr %1, ptr %4, align 8, !tbaa !3
  call void @llvm.lifetime.start.p0(i64 4, ptr %5) #13
  %7 = load ptr, ptr %4, align 8, !tbaa !3
  %8 = getelementptr inbounds nuw %"struct.duckdb_zstd::ldmParams_t", ptr %7, i32 0, i32 3
  %9 = load i32, ptr %8, align 4, !tbaa !15
  %10 = icmp ult i32 %9, 64
  br i1 %10, label %11, label %15

11:                                               ; preds = %2
  %12 = load ptr, ptr %4, align 8, !tbaa !3
  %13 = getelementptr inbounds nuw %"struct.duckdb_zstd::ldmParams_t", ptr %12, i32 0, i32 3
  %14 = load i32, ptr %13, align 4, !tbaa !15
  br label %16

15:                                               ; preds = %2
  br label %16

16:                                               ; preds = %15, %11
  %17 = phi i32 [ %14, %11 ], [ 64, %15 ]
  store i32 %17, ptr %5, align 4, !tbaa !23
  call void @llvm.lifetime.start.p0(i64 4, ptr %6) #13
  %18 = load ptr, ptr %4, align 8, !tbaa !3
  %19 = getelementptr inbounds nuw %"struct.duckdb_zstd::ldmParams_t", ptr %18, i32 0, i32 4
  %20 = load i32, ptr %19, align 4, !tbaa !17
  store i32 %20, ptr %6, align 4, !tbaa !23
  %21 = load ptr, ptr %3, align 8, !tbaa !3
  %22 = getelementptr inbounds nuw %"struct.duckdb_zstd::ldmRollingHashState_t", ptr %21, i32 0, i32 0
  store i64 4294967295, ptr %22, align 8, !tbaa !38
  %23 = load i32, ptr %6, align 4, !tbaa !23
  %24 = icmp ugt i32 %23, 0
  br i1 %24, label %25, label %41

25:                                               ; preds = %16
  %26 = load i32, ptr %6, align 4, !tbaa !23
  %27 = load i32, ptr %5, align 4, !tbaa !23
  %28 = icmp ule i32 %26, %27
  br i1 %28, label %29, label %41

29:                                               ; preds = %25
  %30 = load i32, ptr %6, align 4, !tbaa !23
  %31 = zext i32 %30 to i64
  %32 = shl i64 1, %31
  %33 = sub i64 %32, 1
  %34 = load i32, ptr %5, align 4, !tbaa !23
  %35 = load i32, ptr %6, align 4, !tbaa !23
  %36 = sub i32 %34, %35
  %37 = zext i32 %36 to i64
  %38 = shl i64 %33, %37
  %39 = load ptr, ptr %3, align 8, !tbaa !3
  %40 = getelementptr inbounds nuw %"struct.duckdb_zstd::ldmRollingHashState_t", ptr %39, i32 0, i32 1
  store i64 %38, ptr %40, align 8, !tbaa !40
  br label %48

41:                                               ; preds = %25, %16
  %42 = load i32, ptr %6, align 4, !tbaa !23
  %43 = zext i32 %42 to i64
  %44 = shl i64 1, %43
  %45 = sub i64 %44, 1
  %46 = load ptr, ptr %3, align 8, !tbaa !3
  %47 = getelementptr inbounds nuw %"struct.duckdb_zstd::ldmRollingHashState_t", ptr %46, i32 0, i32 1
  store i64 %45, ptr %47, align 8, !tbaa !40
  br label %48

48:                                               ; preds = %41, %29
  call void @llvm.lifetime.end.p0(i64 4, ptr %6) #13
  call void @llvm.lifetime.end.p0(i64 4, ptr %5) #13
  ret void
}

; Function Attrs: mustprogress uwtable
define void @_ZN11duckdb_zstd22ZSTD_ldm_fillHashTableEPNS_10ldmState_tEPKhS3_PKNS_11ldmParams_tE(ptr noundef %0, ptr noundef %1, ptr noundef %2, ptr noundef %3) #1 {
  %5 = alloca ptr, align 8
  %6 = alloca ptr, align 8
  %7 = alloca ptr, align 8
  %8 = alloca ptr, align 8
  %9 = alloca i32, align 4
  %10 = alloca i32, align 4
  %11 = alloca ptr, align 8
  %12 = alloca ptr, align 8
  %13 = alloca %"struct.duckdb_zstd::ldmRollingHashState_t", align 8
  %14 = alloca ptr, align 8
  %15 = alloca i32, align 4
  %16 = alloca i64, align 8
  %17 = alloca i32, align 4
  %18 = alloca ptr, align 8
  %19 = alloca i64, align 8
  %20 = alloca i32, align 4
  %21 = alloca %"struct.duckdb_zstd::ldmEntry_t", align 4
  %22 = alloca %"struct.duckdb_zstd::ldmEntry_t", align 4
  %23 = alloca %"struct.duckdb_zstd::ldmParams_t", align 8
  store ptr %0, ptr %5, align 8, !tbaa !3
  store ptr %1, ptr %6, align 8, !tbaa !21
  store ptr %2, ptr %7, align 8, !tbaa !21
  store ptr %3, ptr %8, align 8, !tbaa !3
  call void @llvm.lifetime.start.p0(i64 4, ptr %9) #13
  %24 = load ptr, ptr %8, align 8, !tbaa !3
  %25 = getelementptr inbounds nuw %"struct.duckdb_zstd::ldmParams_t", ptr %24, i32 0, i32 3
  %26 = load i32, ptr %25, align 4, !tbaa !15
  store i32 %26, ptr %9, align 4, !tbaa !23
  call void @llvm.lifetime.start.p0(i64 4, ptr %10) #13
  %27 = load ptr, ptr %8, align 8, !tbaa !3
  %28 = getelementptr inbounds nuw %"struct.duckdb_zstd::ldmParams_t", ptr %27, i32 0, i32 1
  %29 = load i32, ptr %28, align 4, !tbaa !16
  %30 = load ptr, ptr %8, align 8, !tbaa !3
  %31 = getelementptr inbounds nuw %"struct.duckdb_zstd::ldmParams_t", ptr %30, i32 0, i32 2
  %32 = load i32, ptr %31, align 4, !tbaa !14
  %33 = sub i32 %29, %32
  store i32 %33, ptr %10, align 4, !tbaa !23
  call void @llvm.lifetime.start.p0(i64 8, ptr %11) #13
  %34 = load ptr, ptr %5, align 8, !tbaa !3
  %35 = getelementptr inbounds nuw %"struct.duckdb_zstd::ldmState_t", ptr %34, i32 0, i32 0
  %36 = getelementptr inbounds nuw %"struct.duckdb_zstd::ZSTD_window_t", ptr %35, i32 0, i32 1
  %37 = load ptr, ptr %36, align 8, !tbaa !24
  store ptr %37, ptr %11, align 8, !tbaa !21
  call void @llvm.lifetime.start.p0(i64 8, ptr %12) #13
  %38 = load ptr, ptr %6, align 8, !tbaa !21
  store ptr %38, ptr %12, align 8, !tbaa !21
  call void @llvm.lifetime.start.p0(i64 16, ptr %13) #13
  call void @llvm.lifetime.start.p0(i64 8, ptr %14) #13
  %39 = load ptr, ptr %5, align 8, !tbaa !3
  %40 = getelementptr inbounds nuw %"struct.duckdb_zstd::ldmState_t", ptr %39, i32 0, i32 4
  %41 = getelementptr inbounds [64 x i64], ptr %40, i64 0, i64 0
  store ptr %41, ptr %14, align 8, !tbaa !27
  call void @llvm.lifetime.start.p0(i64 4, ptr %15) #13
  br label %42

42:                                               ; preds = %4
  br label %43

43:                                               ; preds = %42
  br label %44

44:                                               ; preds = %43
  %45 = load ptr, ptr %8, align 8, !tbaa !3
  call void @_ZN11duckdb_zstdL18ZSTD_ldm_gear_initEPNS_21ldmRollingHashState_tEPKNS_11ldmParams_tE(ptr noundef %13, ptr noundef %45)
  br label %46

46:                                               ; preds = %119, %44
  %47 = load ptr, ptr %6, align 8, !tbaa !21
  %48 = load ptr, ptr %7, align 8, !tbaa !21
  %49 = icmp ult ptr %47, %48
  br i1 %49, label %50, label %123

50:                                               ; preds = %46
  call void @llvm.lifetime.start.p0(i64 8, ptr %16) #13
  call void @llvm.lifetime.start.p0(i64 4, ptr %17) #13
  store i32 0, ptr %15, align 4, !tbaa !23
  %51 = load ptr, ptr %6, align 8, !tbaa !21
  %52 = load ptr, ptr %7, align 8, !tbaa !21
  %53 = load ptr, ptr %6, align 8, !tbaa !21
  %54 = ptrtoint ptr %52 to i64
  %55 = ptrtoint ptr %53 to i64
  %56 = sub i64 %54, %55
  %57 = load ptr, ptr %14, align 8, !tbaa !27
  %58 = call noundef i64 @_ZN11duckdb_zstdL18ZSTD_ldm_gear_feedEPNS_21ldmRollingHashState_tEPKhmPmPj(ptr noundef %13, ptr noundef %51, i64 noundef %56, ptr noundef %57, ptr noundef %15)
  store i64 %58, ptr %16, align 8, !tbaa !18
  store i32 0, ptr %17, align 4, !tbaa !23
  br label %59

59:                                               ; preds = %116, %50
  %60 = load i32, ptr %17, align 4, !tbaa !23
  %61 = load i32, ptr %15, align 4, !tbaa !23
  %62 = icmp ult i32 %60, %61
  br i1 %62, label %63, label %119

63:                                               ; preds = %59
  %64 = load ptr, ptr %6, align 8, !tbaa !21
  %65 = load ptr, ptr %14, align 8, !tbaa !27
  %66 = load i32, ptr %17, align 4, !tbaa !23
  %67 = zext i32 %66 to i64
  %68 = getelementptr inbounds nuw i64, ptr %65, i64 %67
  %69 = load i64, ptr %68, align 8, !tbaa !18
  %70 = getelementptr inbounds nuw i8, ptr %64, i64 %69
  %71 = load ptr, ptr %12, align 8, !tbaa !21
  %72 = load i32, ptr %9, align 4, !tbaa !23
  %73 = zext i32 %72 to i64
  %74 = getelementptr inbounds nuw i8, ptr %71, i64 %73
  %75 = icmp uge ptr %70, %74
  br i1 %75, label %76, label %115

76:                                               ; preds = %63
  call void @llvm.lifetime.start.p0(i64 8, ptr %18) #13
  %77 = load ptr, ptr %6, align 8, !tbaa !21
  %78 = load ptr, ptr %14, align 8, !tbaa !27
  %79 = load i32, ptr %17, align 4, !tbaa !23
  %80 = zext i32 %79 to i64
  %81 = getelementptr inbounds nuw i64, ptr %78, i64 %80
  %82 = load i64, ptr %81, align 8, !tbaa !18
  %83 = getelementptr inbounds nuw i8, ptr %77, i64 %82
  %84 = load i32, ptr %9, align 4, !tbaa !23
  %85 = zext i32 %84 to i64
  %86 = sub i64 0, %85
  %87 = getelementptr inbounds i8, ptr %83, i64 %86
  store ptr %87, ptr %18, align 8, !tbaa !21
  call void @llvm.lifetime.start.p0(i64 8, ptr %19) #13
  %88 = load ptr, ptr %18, align 8, !tbaa !21
  %89 = load i32, ptr %9, align 4, !tbaa !23
  %90 = zext i32 %89 to i64
  %91 = call noundef i64 @_ZN11duckdb_zstd5XXH64EPKvmy(ptr noundef %88, i64 noundef %90, i64 noundef 0)
  store i64 %91, ptr %19, align 8, !tbaa !18
  call void @llvm.lifetime.start.p0(i64 4, ptr %20) #13
  %92 = load i64, ptr %19, align 8, !tbaa !18
  %93 = load i32, ptr %10, align 4, !tbaa !23
  %94 = shl i32 1, %93
  %95 = sub i32 %94, 1
  %96 = zext i32 %95 to i64
  %97 = and i64 %92, %96
  %98 = trunc i64 %97 to i32
  store i32 %98, ptr %20, align 4, !tbaa !23
  call void @llvm.lifetime.start.p0(i64 8, ptr %21) #13
  %99 = load ptr, ptr %18, align 8, !tbaa !21
  %100 = load ptr, ptr %11, align 8, !tbaa !21
  %101 = ptrtoint ptr %99 to i64
  %102 = ptrtoint ptr %100 to i64
  %103 = sub i64 %101, %102
  %104 = trunc i64 %103 to i32
  %105 = getelementptr inbounds nuw %"struct.duckdb_zstd::ldmEntry_t", ptr %21, i32 0, i32 0
  store i32 %104, ptr %105, align 4, !tbaa !29
  %106 = load i64, ptr %19, align 8, !tbaa !18
  %107 = lshr i64 %106, 32
  %108 = trunc i64 %107 to i32
  %109 = getelementptr inbounds nuw %"struct.duckdb_zstd::ldmEntry_t", ptr %21, i32 0, i32 1
  store i32 %108, ptr %109, align 4, !tbaa !31
  %110 = load ptr, ptr %5, align 8, !tbaa !3
  %111 = load i32, ptr %20, align 4, !tbaa !23
  %112 = zext i32 %111 to i64
  call void @llvm.memcpy.p0.p0.i64(ptr align 4 %22, ptr align 4 %21, i64 8, i1 false), !tbaa.struct !32
  %113 = load ptr, ptr %8, align 8, !tbaa !3
  call void @llvm.memcpy.p0.p0.i64(ptr align 4 %23, ptr align 4 %113, i64 24, i1 false), !tbaa.struct !33
  %114 = load i64, ptr %22, align 4
  call void @_ZN11duckdb_zstdL20ZSTD_ldm_insertEntryEPNS_10ldmState_tEmNS_10ldmEntry_tENS_11ldmParams_tE(ptr noundef %110, i64 noundef %112, i64 %114, ptr noundef byval(%"struct.duckdb_zstd::ldmParams_t") align 8 %23)
  call void @llvm.lifetime.end.p0(i64 8, ptr %21) #13
  call void @llvm.lifetime.end.p0(i64 4, ptr %20) #13
  call void @llvm.lifetime.end.p0(i64 8, ptr %19) #13
  call void @llvm.lifetime.end.p0(i64 8, ptr %18) #13
  br label %115

115:                                              ; preds = %76, %63
  br label %116

116:                                              ; preds = %115
  %117 = load i32, ptr %17, align 4, !tbaa !23
  %118 = add i32 %117, 1
  store i32 %118, ptr %17, align 4, !tbaa !23
  br label %59, !llvm.loop !35

119:                                              ; preds = %59
  %120 = load i64, ptr %16, align 8, !tbaa !18
  %121 = load ptr, ptr %6, align 8, !tbaa !21
  %122 = getelementptr inbounds nuw i8, ptr %121, i64 %120
  store ptr %122, ptr %6, align 8, !tbaa !21
  call void @llvm.lifetime.end.p0(i64 4, ptr %17) #13
  call void @llvm.lifetime.end.p0(i64 8, ptr %16) #13
  br label %46, !llvm.loop !37

123:                                              ; preds = %46
  call void @llvm.lifetime.end.p0(i64 4, ptr %15) #13
  call void @llvm.lifetime.end.p0(i64 8, ptr %14) #13
  call void @llvm.lifetime.end.p0(i64 16, ptr %13) #13
  call void @llvm.lifetime.end.p0(i64 8, ptr %12) #13
  call void @llvm.lifetime.end.p0(i64 8, ptr %11) #13
  call void @llvm.lifetime.end.p0(i64 4, ptr %10) #13
  call void @llvm.lifetime.end.p0(i64 4, ptr %9) #13
  ret void
}