; Function Attrs: mustprogress uwtable
define void @_ZN11duckdb_zstd22ZSTD_ldm_fillHashTableEPNS_10ldmState_tEPKhS3_PKNS_11ldmParams_tE(ptr noundef captures(none) %0, ptr noundef %1, ptr noundef %2, ptr noundef readonly captures(none) %3) local_unnamed_addr #3 {
  %5 = alloca %"struct.duckdb_zstd::ldmRollingHashState_t", align 8
  %6 = alloca i32, align 4
  %7 = getelementptr inbounds nuw i8, ptr %3, i64 12
  %8 = load i32, ptr %7, align 4, !tbaa !13
  %.12.val.fr.i = freeze i32 %8
  %9 = getelementptr inbounds nuw i8, ptr %3, i64 4
  %10 = load i32, ptr %9, align 4, !tbaa !14
  %11 = getelementptr inbounds nuw i8, ptr %3, i64 8
  %12 = load i32, ptr %11, align 4, !tbaa !12
  %13 = getelementptr inbounds nuw i8, ptr %0, i64 8
  %14 = load ptr, ptr %13, align 8, !tbaa !17
  call void @llvm.lifetime.start.p0(i64 16, ptr nonnull %5) #12
  %15 = getelementptr inbounds nuw i8, ptr %0, i64 64
  call void @llvm.lifetime.start.p0(i64 4, ptr nonnull %6) #12
  %16 = getelementptr i8, ptr %3, i64 16
  %.val39 = load i32, ptr %16, align 4, !tbaa !15
  %spec.select.i = tail call i32 @llvm.umin.i32(i32 %.12.val.fr.i, i32 64)
  store i64 4294967295, ptr %5, align 8, !tbaa !22
  %17 = add i32 %.val39, -1
  %or.cond.not.i = icmp ult i32 %17, %spec.select.i
  %18 = zext nneg i32 %.val39 to i64
  %notmask15.i = shl nsw i64 -1, %18
  %19 = xor i64 %notmask15.i, -1
  %20 = sub nuw nsw i32 %spec.select.i, %.val39
  %narrow.i = select i1 %or.cond.not.i, i32 %20, i32 0
  %21 = zext nneg i32 %narrow.i to i64
  %.sink.i = shl i64 %19, %21
  %22 = getelementptr inbounds nuw i8, ptr %5, i64 8
  store i64 %.sink.i, ptr %22, align 8, !tbaa !25
  %23 = icmp ult ptr %1, %2
  br i1 %23, label %.lr.ph47, label %._crit_edge48

.lr.ph47:                                         ; preds = %4
  %24 = sub i32 %10, %12
  %25 = ptrtoint ptr %2 to i64
  %26 = zext i32 %.12.val.fr.i to i64
  %27 = getelementptr inbounds nuw i8, ptr %1, i64 %26
  %28 = sub nsw i64 0, %26
  %notmask = shl nsw i32 -1, %24
  %29 = xor i32 %notmask, -1
  %30 = ptrtoint ptr %14 to i64
  %31 = getelementptr i8, ptr %0, i64 40
  %32 = getelementptr i8, ptr %0, i64 56
  br label %33

33:                                               ; preds = %.lr.ph47, %._crit_edge
  %.045 = phi ptr [ %1, %.lr.ph47 ], [ %62, %._crit_edge ]
  store i32 0, ptr %6, align 4, !tbaa !26
  %34 = ptrtoint ptr %.045 to i64
  %35 = sub i64 %25, %34
  %36 = call fastcc noundef i64 @_ZN11duckdb_zstdL18ZSTD_ldm_gear_feedEPNS_21ldmRollingHashState_tEPKhmPmPj(ptr noundef %5, ptr noundef %.045, i64 noundef %35, ptr noundef nonnull %15, ptr noundef %6)
  %37 = load i32, ptr %6, align 4, !tbaa !26
  %.not49 = icmp eq i32 %37, 0
  br i1 %.not49, label %._crit_edge, label %.lr.ph.preheader

.lr.ph.preheader:                                 ; preds = %33
  %wide.trip.count = zext i32 %37 to i64
  br label %.lr.ph

.lr.ph:                                           ; preds = %.lr.ph.preheader, %61
  %indvars.iv = phi i64 [ 0, %.lr.ph.preheader ], [ %indvars.iv.next, %61 ]
  %38 = getelementptr inbounds nuw i64, ptr %15, i64 %indvars.iv
  %39 = load i64, ptr %38, align 8, !tbaa !27
  %40 = getelementptr inbounds nuw i8, ptr %.045, i64 %39
  %.not = icmp ult ptr %40, %27
  br i1 %.not, label %61, label %41

41:                                               ; preds = %.lr.ph
  %42 = getelementptr inbounds i8, ptr %40, i64 %28
  %43 = tail call noundef i64 @_ZN11duckdb_zstd5XXH64EPKvmy(ptr noundef %42, i64 noundef %26, i64 noundef 0)
  %44 = trunc i64 %43 to i32
  %45 = and i32 %44, %29
  %46 = ptrtoint ptr %42 to i64
  %47 = sub i64 %46, %30
  %.sroa.4.0.insert.shift = and i64 %43, -4294967296
  %48 = zext nneg i32 %45 to i64
  %.sroa.01.0.insert.ext = and i64 %47, 4294967295
  %.sroa.01.0.insert.insert = or disjoint i64 %.sroa.4.0.insert.shift, %.sroa.01.0.insert.ext
  %.sroa.2.0.copyload = load i32, ptr %11, align 4, !tbaa !26
  %.val40 = load ptr, ptr %31, align 8, !tbaa !28
  %.val41 = load ptr, ptr %32, align 8, !tbaa !29
  %49 = getelementptr inbounds nuw i8, ptr %.val41, i64 %48
  %50 = load i8, ptr %49, align 1, !tbaa !30
  %51 = zext i8 %50 to i32
  %52 = zext nneg i32 %.sroa.2.0.copyload to i64
  %53 = shl i64 %48, %52
  %54 = getelementptr inbounds nuw %"struct.duckdb_zstd::ldmEntry_t", ptr %.val40, i64 %53
  %55 = zext i8 %50 to i64
  %56 = getelementptr inbounds nuw %"struct.duckdb_zstd::ldmEntry_t", ptr %54, i64 %55
  store i64 %.sroa.01.0.insert.insert, ptr %56, align 4
  %57 = add nuw nsw i32 %51, 1
  %notmask.i = shl nsw i32 -1, %.sroa.2.0.copyload
  %58 = xor i32 %notmask.i, -1
  %59 = and i32 %57, %58
  %60 = trunc i32 %59 to i8
  store i8 %60, ptr %49, align 1, !tbaa !30
  br label %61

61:                                               ; preds = %.lr.ph, %41
  %indvars.iv.next = add nuw nsw i64 %indvars.iv, 1
  %exitcond.not = icmp eq i64 %indvars.iv.next, %wide.trip.count
  br i1 %exitcond.not, label %._crit_edge, label %.lr.ph, !llvm.loop !31

._crit_edge:                                      ; preds = %61, %33
  %62 = getelementptr inbounds nuw i8, ptr %.045, i64 %36
  %63 = icmp ult ptr %62, %2
  br i1 %63, label %33, label %._crit_edge48, !llvm.loop !33

._crit_edge48:                                    ; preds = %._crit_edge, %4
  call void @llvm.lifetime.end.p0(i64 4, ptr nonnull %6) #12
  call void @llvm.lifetime.end.p0(i64 16, ptr nonnull %5) #12
  ret void
}